target datalayout = "e-m:e-p270:32:32-p271:32:32-p272:64:64-i64:64-i128:128-f80:128-n8:16:32:64-S128"
target triple = "x86_64-pc-linux-gnu"

%struct.AVFormatContext = type { ptr, ptr, ptr, ptr, ptr, i32, i32, ptr, i32, ptr, i32, ptr, ptr, i64, i64, i64, i32, i32, i32, i64, i64, ptr, i32, i32, ptr, i32, i32, i32, i32, ptr, i64, i32, i32, %struct.AVIOInterruptCB, i32, i32, i32, i32, i64, i32, i32, i32, i32, i32, i32, i32, i32, i32, i32, i32, i32, i64, i32, i32, i32, i32, i32, ptr, ptr, ptr, ptr, i32, ptr, ptr, ptr, ptr, i32, ptr, ptr, i64, ptr, ptr, ptr, i64 }
%struct.AVIOInterruptCB = type { ptr, ptr }
%struct.AVStream = type { ptr, i32, i32, ptr, ptr, %struct.AVRational, i64, i64, i64, i32, i32, %struct.AVRational, ptr, %struct.AVRational, %struct.AVPacket, i32, %struct.AVRational, i32 }
%struct.AVPacket = type { ptr, i64, i64, ptr, i32, i32, i32, ptr, i32, i64, i64, ptr, ptr, %struct.AVRational }
%struct.AVRational = type { i32, i32 }
%struct.FFStream = type { %struct.AVStream, ptr, i32, ptr, i32, ptr, i32, %struct.anon, i32, i32, %struct.FFFrac, ptr, ptr, i32, i32, i64, i64, i32, i32, i32, i64, i64, i64, i32, i64, i64, i64, i32, i32, [17 x i64], [17 x i8], [17 x i64], i64, i8, i8, %struct.AVRational, %struct.AVProbeData, ptr, i64, i32, i32, i32, ptr, i32, i32, i64, i64, ptr, %struct.AVRational }
%struct.anon = type { ptr, i32 }
%struct.FFFrac = type { i64, i64, i64 }
%struct.AVProbeData = type { ptr, ptr, i32, ptr }
%struct.AVCodecParameters = type { i32, i32, i32, ptr, i32, ptr, i32, i32, i64, i32, i32, i32, i32, i32, i32, %struct.AVRational, %struct.AVRational, i32, i32, i32, i32, i32, i32, i32, %struct.AVChannelLayout, i32, i32, i32, i32, i32, i32 }
%struct.AVChannelLayout = type { i32, i32, %union.anon, ptr }
%union.anon = type { i64 }

@.str.2 = private unnamed_addr constant [20 x i8] c"ASMRuleBook:string;\00", align 1
@.str.7 = private unnamed_addr constant [34 x i8] c" %*1[Aa]verage%*1[Bb]andwidth=%ld\00", align 1

; Function Attrs: alwaysinline nounwind uwtable
define internal ptr @ffstream(ptr noundef %0) #9 {
  %2 = alloca ptr, align 8
  store ptr %0, ptr %2, align 8, !tbaa !37
  %3 = load ptr, ptr %2, align 8, !tbaa !37
  ret ptr %3
}

; Function Attrs: nounwind uwtable
define internal void @real_parse_asm_rule(ptr noundef %0, ptr noundef %1, ptr noundef %2) #0 {
  %4 = alloca ptr, align 8
  %5 = alloca ptr, align 8
  %6 = alloca ptr, align 8
  store ptr %0, ptr %4, align 8, !tbaa !37
  store ptr %1, ptr %5, align 8, !tbaa !55
  store ptr %2, ptr %6, align 8, !tbaa !55
  br label %7

7:                                                ; preds = %29, %3
  %8 = load ptr, ptr %5, align 8, !tbaa !55
  %9 = load ptr, ptr %4, align 8, !tbaa !37
  %10 = getelementptr inbounds nuw %struct.AVStream, ptr %9, i32 0, i32 3
  %11 = load ptr, ptr %10, align 8, !tbaa !102
  %12 = getelementptr inbounds nuw %struct.AVCodecParameters, ptr %11, i32 0, i32 8
  %13 = call i32 (ptr, ptr, ...) @__isoc99_sscanf(ptr noundef %8, ptr noundef @.str.7, ptr noundef %12) #12
  %14 = icmp eq i32 %13, 1
  br i1 %14, label %15, label %16

15:                                               ; preds = %7
  br label %33

16:                                               ; preds = %7
  %17 = load ptr, ptr %5, align 8, !tbaa !55
  %18 = call ptr @strchr(ptr noundef %17, i32 noundef 44) #13
  store ptr %18, ptr %5, align 8, !tbaa !55
  %19 = icmp ne ptr %18, null
  br i1 %19, label %20, label %24

20:                                               ; preds = %16
  %21 = load ptr, ptr %5, align 8, !tbaa !55
  %22 = load ptr, ptr %6, align 8, !tbaa !55
  %23 = icmp ugt ptr %21, %22
  br i1 %23, label %24, label %26

24:                                               ; preds = %20, %16
  %25 = load ptr, ptr %6, align 8, !tbaa !55
  store ptr %25, ptr %5, align 8, !tbaa !55
  br label %26

26:                                               ; preds = %24, %20
  %27 = load ptr, ptr %5, align 8, !tbaa !55
  %28 = getelementptr inbounds nuw i8, ptr %27, i32 1
  store ptr %28, ptr %5, align 8, !tbaa !55
  br label %29

29:                                               ; preds = %26
  %30 = load ptr, ptr %5, align 8, !tbaa !55
  %31 = load ptr, ptr %6, align 8, !tbaa !55
  %32 = icmp ult ptr %30, %31
  br i1 %32, label %7, label %33, !llvm.loop !110

33:                                               ; preds = %29, %15
  ret void
}

; Function Attrs: nounwind uwtable
define internal ptr @add_dstream(ptr noundef %0, ptr noundef %1) #0 {
  %3 = alloca ptr, align 8
  %4 = alloca ptr, align 8
  %5 = alloca ptr, align 8
  %6 = alloca ptr, align 8
  %7 = alloca i32, align 4
  store ptr %0, ptr %4, align 8, !tbaa !4
  store ptr %1, ptr %5, align 8, !tbaa !37
  call void @llvm.lifetime.start.p0(i64 8, ptr %6) #12
  %8 = load ptr, ptr %4, align 8, !tbaa !4
  %9 = call ptr @avformat_new_stream(ptr noundef %8, ptr noundef null)
  store ptr %9, ptr %6, align 8, !tbaa !37
  %10 = icmp ne ptr %9, null
  br i1 %10, label %12, label %11

11:                                               ; preds = %2
  store ptr null, ptr %3, align 8
  store i32 1, ptr %7, align 4
  br label %35

12:                                               ; preds = %2
  %13 = load ptr, ptr %5, align 8, !tbaa !37
  %14 = getelementptr inbounds nuw %struct.AVStream, ptr %13, i32 0, i32 2
  %15 = load i32, ptr %14, align 4, !tbaa !39
  %16 = load ptr, ptr %6, align 8, !tbaa !37
  %17 = getelementptr inbounds nuw %struct.AVStream, ptr %16, i32 0, i32 2
  store i32 %15, ptr %17, align 4, !tbaa !39
  %18 = load ptr, ptr %5, align 8, !tbaa !37
  %19 = getelementptr inbounds nuw %struct.AVStream, ptr %18, i32 0, i32 3
  %20 = load ptr, ptr %19, align 8, !tbaa !102
  %21 = getelementptr inbounds nuw %struct.AVCodecParameters, ptr %20, i32 0, i32 0
  %22 = load i32, ptr %21, align 8, !tbaa !109
  %23 = load ptr, ptr %6, align 8, !tbaa !37
  %24 = getelementptr inbounds nuw %struct.AVStream, ptr %23, i32 0, i32 3
  %25 = load ptr, ptr %24, align 8, !tbaa !102
  %26 = getelementptr inbounds nuw %struct.AVCodecParameters, ptr %25, i32 0, i32 0
  store i32 %22, ptr %26, align 8, !tbaa !109
  %27 = load ptr, ptr %5, align 8, !tbaa !37
  %28 = call ptr @ffstream(ptr noundef %27)
  %29 = getelementptr inbounds nuw %struct.FFStream, ptr %28, i32 0, i32 45
  %30 = load i64, ptr %29, align 8, !tbaa !82
  %31 = load ptr, ptr %6, align 8, !tbaa !37
  %32 = call ptr @ffstream(ptr noundef %31)
  %33 = getelementptr inbounds nuw %struct.FFStream, ptr %32, i32 0, i32 45
  store i64 %30, ptr %33, align 8, !tbaa !82
  %34 = load ptr, ptr %6, align 8, !tbaa !37
  store ptr %34, ptr %3, align 8
  store i32 1, ptr %7, align 4
  br label %35

35:                                               ; preds = %12, %11
  call void @llvm.lifetime.end.p0(i64 8, ptr %6) #12
  %36 = load ptr, ptr %3, align 8
  ret ptr %36
}

; Function Attrs: nounwind uwtable
define internal void @real_parse_asm_rulebook(ptr noundef %0, ptr noundef %1, ptr noundef %2) #0 {
  %4 = alloca ptr, align 8
  %5 = alloca ptr, align 8
  %6 = alloca ptr, align 8
  %7 = alloca ptr, align 8
  %8 = alloca i32, align 4
  %9 = alloca i32, align 4
  %10 = alloca ptr, align 8
  store ptr %0, ptr %4, align 8, !tbaa !4
  store ptr %1, ptr %5, align 8, !tbaa !37
  store ptr %2, ptr %6, align 8, !tbaa !55
  call void @llvm.lifetime.start.p0(i64 8, ptr %7) #12
  call void @llvm.lifetime.start.p0(i64 4, ptr %8) #12
  store i32 0, ptr %8, align 4, !tbaa !9
  call void @llvm.lifetime.start.p0(i64 4, ptr %9) #12
  store i32 0, ptr %9, align 4, !tbaa !9
  call void @llvm.lifetime.start.p0(i64 8, ptr %10) #12
  %11 = load ptr, ptr %6, align 8, !tbaa !55
  %12 = load i8, ptr %11, align 1, !tbaa !56
  %13 = sext i8 %12 to i32
  %14 = icmp eq i32 %13, 34
  br i1 %14, label %15, label %18

15:                                               ; preds = %3
  %16 = load ptr, ptr %6, align 8, !tbaa !55
  %17 = getelementptr inbounds nuw i8, ptr %16, i32 1
  store ptr %17, ptr %6, align 8, !tbaa !55
  br label %18

18:                                               ; preds = %15, %3
  br label %19

19:                                               ; preds = %51, %18
  br label %20

20:                                               ; preds = %19
  %21 = load ptr, ptr %6, align 8, !tbaa !55
  %22 = call ptr @strchr(ptr noundef %21, i32 noundef 59) #13
  store ptr %22, ptr %7, align 8, !tbaa !55
  %23 = icmp ne ptr %22, null
  br i1 %23, label %25, label %24

24:                                               ; preds = %20
  br label %56

25:                                               ; preds = %20
  %26 = load i32, ptr %9, align 4, !tbaa !9
  %27 = icmp ne i32 %26, 0
  br i1 %27, label %51, label %28

28:                                               ; preds = %25
  %29 = load ptr, ptr %7, align 8, !tbaa !55
  %30 = load ptr, ptr %6, align 8, !tbaa !55
  %31 = icmp ne ptr %29, %30
  br i1 %31, label %32, label %51

32:                                               ; preds = %28
  %33 = load i32, ptr %8, align 4, !tbaa !9
  %34 = icmp sgt i32 %33, 0
  br i1 %34, label %35, label %39

35:                                               ; preds = %32
  %36 = load ptr, ptr %4, align 8, !tbaa !4
  %37 = load ptr, ptr %5, align 8, !tbaa !37
  %38 = call ptr @add_dstream(ptr noundef %36, ptr noundef %37)
  store ptr %38, ptr %10, align 8, !tbaa !37
  br label %41

39:                                               ; preds = %32
  %40 = load ptr, ptr %5, align 8, !tbaa !37
  store ptr %40, ptr %10, align 8, !tbaa !37
  br label %41

41:                                               ; preds = %39, %35
  %42 = load ptr, ptr %10, align 8, !tbaa !37
  %43 = icmp ne ptr %42, null
  br i1 %43, label %45, label %44

44:                                               ; preds = %41
  br label %56

45:                                               ; preds = %41
  %46 = load ptr, ptr %10, align 8, !tbaa !37
  %47 = load ptr, ptr %6, align 8, !tbaa !55
  %48 = load ptr, ptr %7, align 8, !tbaa !55
  call void @real_parse_asm_rule(ptr noundef %46, ptr noundef %47, ptr noundef %48)
  %49 = load i32, ptr %8, align 4, !tbaa !9
  %50 = add nsw i32 %49, 1
  store i32 %50, ptr %8, align 4, !tbaa !9
  br label %51

51:                                               ; preds = %45, %28, %25
  %52 = load ptr, ptr %7, align 8, !tbaa !55
  %53 = getelementptr inbounds i8, ptr %52, i64 1
  store ptr %53, ptr %6, align 8, !tbaa !55
  %54 = load i32, ptr %9, align 4, !tbaa !9
  %55 = xor i32 %54, 1
  store i32 %55, ptr %9, align 4, !tbaa !9
  br label %19

56:                                               ; preds = %44, %24
  call void @llvm.lifetime.end.p0(i64 8, ptr %10) #12
  call void @llvm.lifetime.end.p0(i64 4, ptr %9) #12
  call void @llvm.lifetime.end.p0(i64 4, ptr %8) #12
  call void @llvm.lifetime.end.p0(i64 8, ptr %7) #12
  ret void
}

; Function Attrs: nounwind uwtable
define void @ff_real_parse_sdp_a_line(ptr noundef %0, i32 noundef %1, ptr noundef %2) #0 {
  %4 = alloca ptr, align 8
  %5 = alloca i32, align 4
  %6 = alloca ptr, align 8
  %7 = alloca ptr, align 8
  store ptr %0, ptr %4, align 8, !tbaa !4
  store i32 %1, ptr %5, align 4, !tbaa !9
  store ptr %2, ptr %6, align 8, !tbaa !55
  call void @llvm.lifetime.start.p0(i64 8, ptr %7) #12
  %8 = load ptr, ptr %6, align 8, !tbaa !55
  store ptr %8, ptr %7, align 8, !tbaa !55
  %9 = load ptr, ptr %7, align 8, !tbaa !55
  %10 = call i32 @av_strstart(ptr noundef %9, ptr noundef @.str.2, ptr noundef %7)
  %11 = icmp ne i32 %10, 0
  br i1 %11, label %12, label %22

12:                                               ; preds = %3
  %13 = load ptr, ptr %4, align 8, !tbaa !4
  %14 = load ptr, ptr %4, align 8, !tbaa !4
  %15 = getelementptr inbounds nuw %struct.AVFormatContext, ptr %14, i32 0, i32 7
  %16 = load ptr, ptr %15, align 8, !tbaa !20
  %17 = load i32, ptr %5, align 4, !tbaa !9
  %18 = sext i32 %17 to i64
  %19 = getelementptr inbounds ptr, ptr %16, i64 %18
  %20 = load ptr, ptr %19, align 8, !tbaa !37
  %21 = load ptr, ptr %7, align 8, !tbaa !55
  call void @real_parse_asm_rulebook(ptr noundef %13, ptr noundef %20, ptr noundef %21)
  br label %22

22:                                               ; preds = %12, %3
  call void @llvm.lifetime.end.p0(i64 8, ptr %7) #12
  ret void
}