; Function Attrs: nounwind uwtable
define void @ff_real_parse_sdp_a_line(ptr noundef %0, i32 noundef %1, ptr noundef %2) local_unnamed_addr #0 {
  %4 = alloca ptr, align 8
  call void @llvm.lifetime.start.p0(i64 8, ptr nonnull %4) #11
  store ptr %2, ptr %4, align 8, !tbaa !53
  %5 = call i32 @av_strstart(ptr noundef %2, ptr noundef nonnull @.str.2, ptr noundef nonnull %4) #11
  %.not = icmp eq i32 %5, 0
  br i1 %.not, label %real_parse_asm_rulebook.exit, label %6

6:                                                ; preds = %3
  %7 = getelementptr inbounds nuw i8, ptr %0, i64 48
  %8 = load ptr, ptr %7, align 8, !tbaa !13
  %9 = sext i32 %1 to i64
  %10 = getelementptr inbounds ptr, ptr %8, i64 %9
  %11 = load ptr, ptr %10, align 8, !tbaa !30
  %12 = load ptr, ptr %4, align 8, !tbaa !53
  %13 = load i8, ptr %12, align 1, !tbaa !48
  %14 = icmp eq i8 %13, 34
  %spec.select.idx.i = zext i1 %14 to i64
  %spec.select.i = getelementptr inbounds nuw i8, ptr %12, i64 %spec.select.idx.i
  %15 = call ptr @strchr(ptr noundef nonnull readonly dereferenceable(1) %spec.select.i, i32 noundef 59) #12
  %.not31.i = icmp eq ptr %15, null
  br i1 %.not31.i, label %real_parse_asm_rulebook.exit, label %.lr.ph.i

.lr.ph.i:                                         ; preds = %6
  %.not23.i = icmp eq ptr %11, null
  %16 = getelementptr inbounds nuw i8, ptr %11, i64 12
  %17 = getelementptr inbounds nuw i8, ptr %11, i64 16
  %18 = getelementptr inbounds nuw i8, ptr %11, i64 832
  br i1 %.not23.i, label %.lr.ph.split.us.i, label %.lr.ph.split.i

.lr.ph.split.us.i:                                ; preds = %.lr.ph.i, %20
  %19 = phi ptr [ %23, %20 ], [ %15, %.lr.ph.i ]
  %.01634.us.i = phi i32 [ %22, %20 ], [ 0, %.lr.ph.i ]
  %.11932.us.i = phi ptr [ %21, %20 ], [ %spec.select.i, %.lr.ph.i ]
  %.not21.us.i = icmp ne i32 %.01634.us.i, 0
  %.not22.us.i = icmp eq ptr %19, %.11932.us.i
  %or.cond.us.i = or i1 %.not21.us.i, %.not22.us.i
  br i1 %or.cond.us.i, label %20, label %real_parse_asm_rulebook.exit

20:                                               ; preds = %.lr.ph.split.us.i
  %21 = getelementptr inbounds nuw i8, ptr %19, i64 1
  %22 = xor i32 %.01634.us.i, 1
  %23 = call ptr @strchr(ptr noundef nonnull dereferenceable(1) %21, i32 noundef 59) #12
  %.not.us.i = icmp eq ptr %23, null
  br i1 %.not.us.i, label %real_parse_asm_rulebook.exit, label %.lr.ph.split.us.i

.lr.ph.split.i:                                   ; preds = %.lr.ph.i, %49
  %24 = phi ptr [ %52, %49 ], [ %15, %.lr.ph.i ]
  %.01634.i = phi i32 [ %51, %49 ], [ 0, %.lr.ph.i ]
  %.01733.i = phi i32 [ %.1.i, %49 ], [ 0, %.lr.ph.i ]
  %.11932.i = phi ptr [ %50, %49 ], [ %spec.select.i, %.lr.ph.i ]
  %.not21.i = icmp ne i32 %.01634.i, 0
  %.not22.i = icmp eq ptr %24, %.11932.i
  %or.cond.i = or i1 %.not21.i, %.not22.i
  br i1 %or.cond.i, label %49, label %25

25:                                               ; preds = %.lr.ph.split.i
  %26 = icmp sgt i32 %.01733.i, 0
  br i1 %26, label %27, label %add_dstream.exit.i

27:                                               ; preds = %25
  %28 = call ptr @avformat_new_stream(ptr noundef %0, ptr noundef null) #11
  %.not.i.i = icmp eq ptr %28, null
  br i1 %.not.i.i, label %real_parse_asm_rulebook.exit, label %add_dstream.exit.thread27.i

add_dstream.exit.thread27.i:                      ; preds = %27
  %29 = load i32, ptr %16, align 4, !tbaa !32
  %30 = getelementptr inbounds nuw i8, ptr %28, i64 12
  store i32 %29, ptr %30, align 4, !tbaa !32
  %31 = load ptr, ptr %17, align 8, !tbaa !54
  %32 = load i32, ptr %31, align 8, !tbaa !55
  %33 = getelementptr inbounds nuw i8, ptr %28, i64 16
  %34 = load ptr, ptr %33, align 8, !tbaa !54
  store i32 %32, ptr %34, align 8, !tbaa !55
  %35 = load i64, ptr %18, align 8, !tbaa !58
  %36 = getelementptr inbounds nuw i8, ptr %28, i64 832
  store i64 %35, ptr %36, align 8, !tbaa !58
  br label %add_dstream.exit.i

add_dstream.exit.i:                               ; preds = %add_dstream.exit.thread27.i, %25
  %.030.i = phi ptr [ %28, %add_dstream.exit.thread27.i ], [ %11, %25 ]
  %37 = getelementptr inbounds nuw i8, ptr %.030.i, i64 16
  br label %38

38:                                               ; preds = %43, %add_dstream.exit.i
  %.0.i.i = phi ptr [ %.11932.i, %add_dstream.exit.i ], [ %46, %43 ]
  %39 = load ptr, ptr %37, align 8, !tbaa !54
  %40 = getelementptr inbounds nuw i8, ptr %39, i64 48
  %41 = call i32 (ptr, ptr, ...) @__isoc99_sscanf(ptr noundef nonnull %.0.i.i, ptr noundef nonnull @.str.7, ptr noundef nonnull %40) #11
  %42 = icmp eq i32 %41, 1
  br i1 %42, label %real_parse_asm_rule.exit.i, label %43

43:                                               ; preds = %38
  %44 = call ptr @strchr(ptr noundef nonnull dereferenceable(1) %.0.i.i, i32 noundef 44) #12
  %.not.i24.i = icmp eq ptr %44, null
  %45 = icmp ugt ptr %44, %24
  %or.cond.i.i = or i1 %.not.i24.i, %45
  %.1.i.i = select i1 %or.cond.i.i, ptr %24, ptr %44
  %46 = getelementptr inbounds nuw i8, ptr %.1.i.i, i64 1
  %47 = icmp ult ptr %46, %24
  br i1 %47, label %38, label %real_parse_asm_rule.exit.i, !llvm.loop !70

real_parse_asm_rule.exit.i:                       ; preds = %43, %38
  %48 = add nsw i32 %.01733.i, 1
  br label %49

49:                                               ; preds = %real_parse_asm_rule.exit.i, %.lr.ph.split.i
  %.1.i = phi i32 [ %.01733.i, %.lr.ph.split.i ], [ %48, %real_parse_asm_rule.exit.i ]
  %50 = getelementptr inbounds nuw i8, ptr %24, i64 1
  %51 = xor i32 %.01634.i, 1
  %52 = call ptr @strchr(ptr noundef nonnull dereferenceable(1) %50, i32 noundef 59) #12
  %.not.i = icmp eq ptr %52, null
  br i1 %.not.i, label %real_parse_asm_rulebook.exit, label %.lr.ph.split.i

real_parse_asm_rulebook.exit:                     ; preds = %49, %27, %20, %.lr.ph.split.us.i, %6, %3
  call void @llvm.lifetime.end.p0(i64 8, ptr nonnull %4) #11
  ret void
}